; Function Attrs: nounwind uwtable
define dso_local void @jq_yypush_buffer_state(ptr noundef %0, ptr noundef captures(none) %1) local_unnamed_addr #0 {
  %3 = icmp eq ptr %0, null
  br i1 %3, label %61, label %4

4:                                                ; preds = %2
  %5 = getelementptr inbounds nuw i8, ptr %1, i64 40
  %6 = load ptr, ptr %5, align 8, !tbaa !22
  %.not.i = icmp eq ptr %6, null
  br i1 %.not.i, label %7, label %13

7:                                                ; preds = %4
  %8 = tail call ptr @jv_mem_alloc(i64 noundef 8) #17
  store ptr %8, ptr %5, align 8, !tbaa !22
  %.not28.i = icmp eq ptr %8, null
  br i1 %.not28.i, label %9, label %10

9:                                                ; preds = %7
  tail call fastcc void @yy_fatal_error(ptr noundef nonnull @.str.13) #18
  unreachable

10:                                               ; preds = %7
  store i64 0, ptr %8, align 8
  %11 = getelementptr inbounds nuw i8, ptr %1, i64 32
  store i64 1, ptr %11, align 8, !tbaa !26
  %12 = getelementptr inbounds nuw i8, ptr %1, i64 24
  store i64 0, ptr %12, align 8, !tbaa !23
  br label %jq_yyensure_buffer_stack.exit

13:                                               ; preds = %4
  %14 = getelementptr inbounds nuw i8, ptr %1, i64 24
  %15 = load i64, ptr %14, align 8, !tbaa !23
  %16 = getelementptr inbounds nuw i8, ptr %1, i64 32
  %17 = load i64, ptr %16, align 8, !tbaa !26
  %18 = add i64 %17, -1
  %.not29.i = icmp ult i64 %15, %18
  br i1 %.not29.i, label %jq_yyensure_buffer_stack.exit, label %19

19:                                               ; preds = %13
  %20 = add i64 %17, 8
  %21 = shl i64 %20, 3
  %22 = tail call ptr @jv_mem_realloc(ptr noundef nonnull %6, i64 noundef %21) #17
  store ptr %22, ptr %5, align 8, !tbaa !22
  %.not30.i = icmp eq ptr %22, null
  br i1 %.not30.i, label %23, label %24

23:                                               ; preds = %19
  tail call fastcc void @yy_fatal_error(ptr noundef nonnull @.str.13) #18
  unreachable

24:                                               ; preds = %19
  %25 = load i64, ptr %16, align 8, !tbaa !26
  %26 = getelementptr inbounds nuw ptr, ptr %22, i64 %25
  tail call void @llvm.memset.p0.i64(ptr noundef nonnull align 8 dereferenceable(64) %26, i8 0, i64 64, i1 false)
  store i64 %20, ptr %16, align 8, !tbaa !26
  %.pre = load i64, ptr %14, align 8, !tbaa !23
  br label %jq_yyensure_buffer_stack.exit

jq_yyensure_buffer_stack.exit:                    ; preds = %10, %13, %24
  %27 = phi i64 [ 0, %10 ], [ %15, %13 ], [ %.pre, %24 ]
  %28 = load ptr, ptr %5, align 8, !tbaa !22, !nonnull !69, !noundef !69
  %29 = getelementptr inbounds nuw ptr, ptr %28, i64 %27
  %30 = load ptr, ptr %29, align 8, !tbaa !24
  %.not25 = icmp eq ptr %30, null
  br i1 %.not25, label %.thread, label %31

31:                                               ; preds = %jq_yyensure_buffer_stack.exit
  %32 = getelementptr inbounds nuw i8, ptr %1, i64 24
  %33 = getelementptr inbounds nuw i8, ptr %1, i64 48
  %34 = load i8, ptr %33, align 8, !tbaa !38
  %35 = getelementptr inbounds nuw i8, ptr %1, i64 64
  %36 = load ptr, ptr %35, align 8, !tbaa !34
  store i8 %34, ptr %36, align 1, !tbaa !37
  %37 = load ptr, ptr %35, align 8, !tbaa !34
  %38 = load ptr, ptr %5, align 8, !tbaa !22
  %39 = load i64, ptr %32, align 8, !tbaa !23
  %40 = getelementptr inbounds nuw ptr, ptr %38, i64 %39
  %41 = load ptr, ptr %40, align 8, !tbaa !24
  %42 = getelementptr inbounds nuw i8, ptr %41, i64 16
  store ptr %37, ptr %42, align 8, !tbaa !33
  %43 = getelementptr inbounds nuw i8, ptr %1, i64 52
  %44 = load i32, ptr %43, align 4, !tbaa !32
  %45 = getelementptr inbounds nuw i8, ptr %41, i64 28
  store i32 %44, ptr %45, align 4, !tbaa !31
  %46 = add i64 %39, 1
  store i64 %46, ptr %32, align 8, !tbaa !23
  br label %.thread

.thread:                                          ; preds = %jq_yyensure_buffer_stack.exit, %31
  %.pr33 = phi ptr [ %38, %31 ], [ %28, %jq_yyensure_buffer_stack.exit ]
  %47 = phi i64 [ %46, %31 ], [ %27, %jq_yyensure_buffer_stack.exit ]
  %48 = getelementptr inbounds nuw ptr, ptr %.pr33, i64 %47
  store ptr %0, ptr %48, align 8, !tbaa !24
  %49 = getelementptr inbounds nuw i8, ptr %0, i64 28
  %50 = load i32, ptr %49, align 4, !tbaa !31
  %51 = getelementptr inbounds nuw i8, ptr %1, i64 52
  store i32 %50, ptr %51, align 4, !tbaa !32
  %52 = getelementptr inbounds nuw i8, ptr %0, i64 16
  %53 = load ptr, ptr %52, align 8, !tbaa !33
  %54 = getelementptr inbounds nuw i8, ptr %1, i64 64
  store ptr %53, ptr %54, align 8, !tbaa !34
  %55 = getelementptr inbounds nuw i8, ptr %1, i64 128
  store ptr %53, ptr %55, align 8, !tbaa !35
  %56 = load ptr, ptr %0, align 8, !tbaa !36
  %57 = getelementptr inbounds nuw i8, ptr %1, i64 8
  store ptr %56, ptr %57, align 8, !tbaa !19
  %58 = load i8, ptr %53, align 1, !tbaa !37
  %59 = getelementptr inbounds nuw i8, ptr %1, i64 48
  store i8 %58, ptr %59, align 8, !tbaa !38
  %60 = getelementptr inbounds nuw i8, ptr %1, i64 80
  store i32 1, ptr %60, align 8, !tbaa !62
  br label %61

61:                                               ; preds = %2, %.thread
  ret void
}